(dp0
S'vimim.vim.back'
p1
(dp2
S'url'
p3
Vhttp://www.vim.org/scripts/script.php?script_id=760
p4
sS'download'
p5
S'http://www.vim.org/scripts/download_script.php?src_id=15675'
p6
sS'version'
p7
S'0'
p8
sS'name'
p9
g1
sS'latest'
p10
S'3.5'
p11
ssS'autocorrect.dat'
p12
(dp13
g3
S''
p14
sg5
g14
sg7
g8
sg9
g12
sg10
g8
ssS'conque_term.vim'
p15
(dp16
g3
Vhttp://www.vim.org/scripts/script.php?script_id=2771
p17
sg5
g14
sg7
S'2.2'
p18
sg9
S'conque_term'
p19
sg10
g18
ssS'snipMate.vim'
p20
(dp21
g3
Vhttp://www.vim.org/scripts/script.php?script_id=2540
p22
sg5
g14
sg7
S'0.83'
p23
sg9
S'snipMate'
p24
sg10
g23
ssS'tasklist.vim'
p25
(dp26
g3
Vhttp://www.vim.org/scripts/script.php?script_id=2607
p27
sg5
g14
sg7
S'1.0.1'
p28
sg9
S'tasklist'
p29
sg10
g28
ssS'python_editing.vim'
p30
(dp31
g3
Vhttp://www.vim.org/scripts/script.php?script_id=1494
p32
sg5
S'http://www.vim.org/scripts/download_script.php?src_id=5492'
p33
sg7
g8
sg9
S'python_editing'
p34
sg10
S'1.1'
p35
ssS'libList.vim'
p36
(dp37
g3
Vhttp://www.vim.org/script.php?script_id=166
p38
sg5
S'http://www.vim.org/scripts/download_script.php?src_id=421'
p39
sg7
g8
sg9
S'libList'
p40
sg10
S'0.1'
p41
ssS'DrawItPlugin.vim'
p42
(dp43
g3
Vhttp://www.vim.org/scripts/script.php?script_id=40
p44
sg5
S'http://www.vim.org/scripts/download_script.php?src_id=8798'
p45
sg7
g8
sg9
S'DrawItPlugin'
p46
sg10
S'10'
p47
ssS'echofunc.vim'
p48
(dp49
g3
Vhttp://www.vim.org/scripts/script.php?script_id=1735
p50
sg5
S'http://www.vim.org/scripts/download_script.php?src_id=16637'
p51
sg7
g8
sg9
S'echofunc'
p52
sg10
S'1.3'
p53
ssS'git.vim'
p54
(dp55
g3
Vhttp://www.vim.org/scripts/script.php?script_id=2975
p56
sg5
S'http://www.vim.org/scripts/download_script.php?src_id=15542'
p57
sg7
g8
sg9
S'git'
p58
sg10
S'1.2'
p59
ssS'Tabular.vim'
p60
(dp61
g3
Vhttp://www.vim.org/scripts/script.php?script_id=3464
p62
sg5
g14
sg7
S'0.1'
p63
sg9
S'Tabular'
p64
sg10
g63
ssS'tagbar.vim'
p65
(dp66
g3
Vhttp://www.vim.org/scripts/script.php?script_id=3465
p67
sg5
S'http://www.vim.org/scripts/download_script.php?src_id=15751'
p68
sg7
g8
sg9
S'tagbar'
p69
sg10
S'2.1'
p70
ssS'matrix.vim'
p71
(dp72
g3
Vhttp://www.vim.org/scripts/script.php?script_id=1189
p73
sg5
S'http://www.vim.org/scripts/download_script.php?src_id=8687'
p74
sg7
g8
sg9
S'matrix'
p75
sg10
S'1.10'
p76
ssS'vimwiki.vim'
p77
(dp78
g3
Vhttp://www.vim.org/scripts/script.php?script_id=2226
p79
sg5
S'http://www.vim.org/scripts/download_script.php?src_id=15854'
p80
sg7
g8
sg9
S'vimwiki'
p81
sg10
S'1.2'
p82
ssS'SyntaxFolds.vim'
p83
(dp84
g3
Vhttp://vim.wikia.com/wiki/Syntax_folding_of_Vim_scripts
p85
sg5
g14
sg7
g8
sg9
S'SyntaxFolds'
p86
sg10
g8
ssS'gdbmgrPlugin.vim'
p87
(dp88
g3
g14
sg5
g14
sg7
g8
sg9
S'gdbmgrPlugin'
p89
sg10
g8
ssS'colorsel.vim'
p90
(dp91
g3
Vhttp://www.vim.org/scripts/script.php?script_id=927
p92
sg5
S'http://www.vim.org/scripts/download_script.php?src_id=15488'
p93
sg7
g8
sg9
S'colorsel'
p94
sg10
S'20110107'
p95
ssS'pydoc.vim'
p96
(dp97
g3
Vhttp://www.vim.org/scripts/script.php?script_id=910
p98
sg5
S'http://www.vim.org/scripts/download_script.php?src_id=14691'
p99
sg7
g8
sg9
S'pydoc'
p100
sg10
S'1.3.6'
p101
ssS'NERD_tree.vim'
p102
(dp103
g3
Vhttp://www.vim.org/scripts/script.php?script_id=1658
p104
sg5
g14
sg7
S'4.1.0'
p105
sg9
S'NERD_tree'
p106
sg10
g105
ssS'remoteOpen.vim'
p107
(dp108
g3
Vhttp://vim.wikia.com/wiki/Prevent_a_second_instance_of_Vim_from_starting
p109
sg5
g14
sg7
g8
sg9
S'remoteOpen'
p110
sg10
g8
ssS'twitvim.vim'
p111
(dp112
g3
Vhttp://www.vim.org/scripts/script.php?script_id=2204
p113
sg5
S'http://www.vim.org/scripts/download_script.php?src_id=16560'
p114
sg7
g8
sg9
S'twitvim'
p115
sg10
S'0.7.1'
p116
ssS'cecutil.vim'
p117
(dp118
g3
Vhttp://www.vim.org/scripts/script.php?script_id=1066
p119
sg5
S'http://www.vim.org/scripts/download_script.php?src_id=7618'
p120
sg7
g8
sg9
S'cecutil'
p121
sg10
S'17'
p122
ssS'recover.vim'
p123
(dp124
g3
Vhttp://vimdoc.sourceforge.net/htmldoc/recover.html
p125
sg5
g14
sg7
g8
sg9
S'recover'
p126
sg10
g8
ssS'netrwPlugin.vim'
p127
(dp128
g3
Vhttp://www.vim.org/scripts/script.php?script_id=1075
p129
sg5
g14
sg7
S'142'
p130
sg9
S'netrwPlugin'
p131
sg10
g130
ssS'closetag.vim'
p132
(dp133
g3
Vhttp://www.vim.org/script.php?script_id=13
p134
sg5
S'http://www.vim.org/scripts/download_script.php?src_id=4318'
p135
sg7
g8
sg9
S'closetag'
p136
sg10
S'0.9.1'
p137
ssS'showcolor.vim'
p138
(dp139
g3
Vhttp://www.vim.org/scripts/script.php?script_id=3235
p140
sg5
S'http://www.vim.org/scripts/download_script.php?src_id=13795'
p141
sg7
g8
sg9
S'showcolor'
p142
sg10
S'1.0'
p143
ssS'pyclewn.vim'
p144
(dp145
g3
Vhttp://vimdoc.sourceforge.net/htmldoc/netbeans.html
p146
sg5
g14
sg7
g8
sg9
S'pyclewn'
p147
sg10
g8
ssS'calendar.vim'
p148
(dp149
g3
Vhttp://www.vim.org/script.php?script_id=52
p150
sg5
S'http://www.vim.org/scripts/download_script.php?src_id=14880'
p151
sg7
g8
sg9
S'calendar'
p152
sg10
S'2.5'
p153
ssS'fcitx.vim'
p154
(dp155
g3
Vhttp://www.vim.org/scripts/script.php?script_id=3764
p156
sg5
S'http://www.vim.org/scripts/download_script.php?src_id=16632'
p157
sg7
g8
sg9
S'fcitx'
p158
sg10
S'1.0'
p159
ssS'multvals.vim'
p160
(dp161
g3
Vhttp://www.vim.org/script.php?script_id=171
p162
sg5
S'http://www.vim.org/scripts/download_script.php?src_id=3582'
p163
sg7
g8
sg9
S'multvals'
p164
sg10
S'3.10'
p165
ssS'colorpicker.vim'
p166
(dp167
g3
Vhttp://www.vim.org/scripts/script.php?script_id=3224
p168
sg5
S'http://www.vim.org/scripts/download_script.php?src_id=13715'
p169
sg7
g8
sg9
S'colorpicker'
p170
sg10
S'0.1'
p171
ssS'.tagbar.vim.swp'
p172
(dp173
g3
Vhttp://www.vim.org/scripts/script_search_results.php?&direction=ascending&show_me=3000&result_ptr=3000
p174
sg5
S'http://www.vim.org/scripts/script.php?script_id=3019'
p175
sg7
g8
sg9
g172
sg10
NssS'NERD_commenter.vim'
p176
(dp177
g3
Vhttp://www.vim.org/scripts/script.php?script_id=1218
p178
sg5
g14
sg7
S'2.3.0'
p179
sg9
S'NERD_commenter'
p180
sg10
g179
ssS'a.vim'
p181
(dp182
g3
Vhttp://www.vim.org/script.php?script_id=31
p183
sg5
S'http://www.vim.org/scripts/download_script.php?src_id=7218'
p184
sg7
g8
sg9
S'a'
p185
sg10
S'2.18'
p186
ssS'taglist.vim'
p187
(dp188
g3
Vhttp://www.vim.org/script.php?script_id=273
p189
sg5
S'http://www.vim.org/scripts/download_script.php?src_id=7701'
p190
sg7
g8
sg9
S'taglist'
p191
sg10
S'4.5'
p192
ssS'undofile_autocmds.vim'
p193
(dp194
g3
Vhttp://www.vim.org/scripts/script.php?script_id=3198
p195
sg5
S'http://www.vim.org/scripts/download_script.php?src_id=13567'
p196
sg7
g8
sg9
S'undofile_autocmds'
p197
sg10
S'0.2'
p198
ssS'imaps.vim'
p199
(dp200
g3
Vhttp://www.vim.org/script.php?script_id=244
p201
sg5
S'http://www.vim.org/scripts/download_script.php?src_id=681'
p202
sg7
g8
sg9
S'imaps'
p203
sg10
S'1.0'
p204
ssS'fcitx.py'
p205
(dp206
g3
Vhttp://www.vim.org/scripts/script.php?script_id=3764
p207
sg5
S'http://www.vim.org/scripts/download_script.php?src_id=16632'
p208
sg7
g8
sg9
g205
sg10
S'1.0'
p209
ssS'bufexplorer.vim'
p210
(dp211
g3
Vhttp://www.vim.org/script.php?script_id=42
p212
sg5
S'http://www.vim.org/scripts/download_script.php?src_id=14208'
p213
sg7
g8
sg9
S'bufexplorer'
p214
sg10
S'7.2.8'
p215
ssS'autocorrect.vim.back'
p216
(dp217
g3
Vhttp://vimdoc.sourceforge.net/vimfaq.html
p218
sg5
g14
sg7
g8
sg9
g216
sg10
g8
ssS'filebrowser.vim'
p219
(dp220
g3
Vhttp://www.vim.org/scripts/script.php?script_id=1658
p221
sg5
S'http://www.vim.org/scripts/download_script.php?src_id=11834'
p222
sg7
g8
sg9
S'filebrowser'
p223
sg10
S'4.1.0'
p224
ssS'vimim.pinyin.txt'
p225
(dp226
g3
Vhttp://www.vim.org/scripts/script.php?script_id=2506
p227
sg5
S'http://www.vim.org/scripts/download_script.php?src_id=16646'
p228
sg7
g8
sg9
g225
sg10
S'0.9.9.9.7'
p229
ssS'fencview.vim'
p230
(dp231
g3
Vhttp://www.vim.org/scripts/script.php?script_id=1708
p232
sg5
S'http://www.vim.org/scripts/download_script.php?src_id=15376'
p233
sg7
g8
sg9
S'fencview'
p234
sg10
S'4.7'
p235
ssS'undofile.vim'
p236
(dp237
g3
Vhttp://www.vim.org/scripts/script.php?script_id=3198
p238
sg5
S'http://www.vim.org/scripts/download_script.php?src_id=13567'
p239
sg7
g8
sg9
S'undofile'
p240
sg10
S'0.2'
p241
ssS'generator.rb'
p242
(dp243
g3
Vhttp://www.vim.org/scripts/script.php?script_id=1567
p244
sg5
S'http://www.vim.org/scripts/download_script.php?src_id=16429'
p245
sg7
g8
sg9
g242
sg10
S'4.4'
p246
ss.